
start.rv32.elf:     file format elf32-littleriscv


Disassembly of section .text:

00010000 <reset_vec>:
   10000:	0800400b          	0x800400b
   10004:	0600600b          	0x600600b
   10008:	4780006f          	j	10480 <irq_stack>
   1000c:	00000013          	nop

00010010 <irq_vec>:
   10010:	20302023          	sw	gp,512(zero) # 200 <reset_vec-0xfe00>
   10014:	20102223          	sw	ra,516(zero) # 204 <reset_vec-0xfdfc>
   10018:	20202423          	sw	sp,520(zero) # 208 <reset_vec-0xfdf8>
   1001c:	20302623          	sw	gp,524(zero) # 20c <reset_vec-0xfdf4>
   10020:	20402823          	sw	tp,528(zero) # 210 <reset_vec-0xfdf0>
   10024:	20502a23          	sw	t0,532(zero) # 214 <reset_vec-0xfdec>
   10028:	20602c23          	sw	t1,536(zero) # 218 <reset_vec-0xfde8>
   1002c:	20702e23          	sw	t2,540(zero) # 21c <reset_vec-0xfde4>
   10030:	22802023          	sw	s0,544(zero) # 220 <reset_vec-0xfde0>
   10034:	22902223          	sw	s1,548(zero) # 224 <reset_vec-0xfddc>
   10038:	22a02423          	sw	a0,552(zero) # 228 <reset_vec-0xfdd8>
   1003c:	22b02623          	sw	a1,556(zero) # 22c <reset_vec-0xfdd4>
   10040:	22c02823          	sw	a2,560(zero) # 230 <reset_vec-0xfdd0>
   10044:	22d02a23          	sw	a3,564(zero) # 234 <reset_vec-0xfdcc>
   10048:	22e02c23          	sw	a4,568(zero) # 238 <reset_vec-0xfdc8>
   1004c:	22f02e23          	sw	a5,572(zero) # 23c <reset_vec-0xfdc4>
   10050:	25002023          	sw	a6,576(zero) # 240 <reset_vec-0xfdc0>
   10054:	25102223          	sw	a7,580(zero) # 244 <reset_vec-0xfdbc>
   10058:	25202423          	sw	s2,584(zero) # 248 <reset_vec-0xfdb8>
   1005c:	25302623          	sw	s3,588(zero) # 24c <reset_vec-0xfdb4>
   10060:	25402823          	sw	s4,592(zero) # 250 <reset_vec-0xfdb0>
   10064:	25502a23          	sw	s5,596(zero) # 254 <reset_vec-0xfdac>
   10068:	25602c23          	sw	s6,600(zero) # 258 <reset_vec-0xfda8>
   1006c:	25702e23          	sw	s7,604(zero) # 25c <reset_vec-0xfda4>
   10070:	27802023          	sw	s8,608(zero) # 260 <reset_vec-0xfda0>
   10074:	27902223          	sw	s9,612(zero) # 264 <reset_vec-0xfd9c>
   10078:	27a02423          	sw	s10,616(zero) # 268 <reset_vec-0xfd98>
   1007c:	27b02623          	sw	s11,620(zero) # 26c <reset_vec-0xfd94>
   10080:	27c02823          	sw	t3,624(zero) # 270 <reset_vec-0xfd90>
   10084:	27d02a23          	sw	t4,628(zero) # 274 <reset_vec-0xfd8c>
   10088:	27e02c23          	sw	t5,632(zero) # 278 <reset_vec-0xfd88>
   1008c:	27f02e23          	sw	t6,636(zero) # 27c <reset_vec-0xfd84>
   10090:	00010137          	lui	sp,0x10
   10094:	48010113          	addi	sp,sp,1152 # 10480 <irq_stack>
   10098:	00010537          	lui	a0,0x10
   1009c:	20050513          	addi	a0,a0,512 # 10200 <irq_regs>
   100a0:	00020593          	mv	a1,tp
   100a4:	624000ef          	jal	ra,106c8 <irq>
   100a8:	20000593          	li	a1,512
   100ac:	00b50463          	beq	a0,a1,100b4 <irq_vec+0xa4>
   100b0:	00100073          	ebreak
   100b4:	20002183          	lw	gp,512(zero) # 200 <reset_vec-0xfe00>
   100b8:	20402083          	lw	ra,516(zero) # 204 <reset_vec-0xfdfc>
   100bc:	20802103          	lw	sp,520(zero) # 208 <reset_vec-0xfdf8>
   100c0:	21002203          	lw	tp,528(zero) # 210 <reset_vec-0xfdf0>
   100c4:	21402283          	lw	t0,532(zero) # 214 <reset_vec-0xfdec>
   100c8:	21802303          	lw	t1,536(zero) # 218 <reset_vec-0xfde8>
   100cc:	21c02383          	lw	t2,540(zero) # 21c <reset_vec-0xfde4>
   100d0:	22002403          	lw	s0,544(zero) # 220 <reset_vec-0xfde0>
   100d4:	22402483          	lw	s1,548(zero) # 224 <reset_vec-0xfddc>
   100d8:	22802503          	lw	a0,552(zero) # 228 <reset_vec-0xfdd8>
   100dc:	22c02583          	lw	a1,556(zero) # 22c <reset_vec-0xfdd4>
   100e0:	23002603          	lw	a2,560(zero) # 230 <reset_vec-0xfdd0>
   100e4:	23402683          	lw	a3,564(zero) # 234 <reset_vec-0xfdcc>
   100e8:	23802703          	lw	a4,568(zero) # 238 <reset_vec-0xfdc8>
   100ec:	23c02783          	lw	a5,572(zero) # 23c <reset_vec-0xfdc4>
   100f0:	24002803          	lw	a6,576(zero) # 240 <reset_vec-0xfdc0>
   100f4:	24402883          	lw	a7,580(zero) # 244 <reset_vec-0xfdbc>
   100f8:	24802903          	lw	s2,584(zero) # 248 <reset_vec-0xfdb8>
   100fc:	24c02983          	lw	s3,588(zero) # 24c <reset_vec-0xfdb4>
   10100:	25002a03          	lw	s4,592(zero) # 250 <reset_vec-0xfdb0>
   10104:	25402a83          	lw	s5,596(zero) # 254 <reset_vec-0xfdac>
   10108:	25802b03          	lw	s6,600(zero) # 258 <reset_vec-0xfda8>
   1010c:	25c02b83          	lw	s7,604(zero) # 25c <reset_vec-0xfda4>
   10110:	26002c03          	lw	s8,608(zero) # 260 <reset_vec-0xfda0>
   10114:	26402c83          	lw	s9,612(zero) # 264 <reset_vec-0xfd9c>
   10118:	26802d03          	lw	s10,616(zero) # 268 <reset_vec-0xfd98>
   1011c:	26c02d83          	lw	s11,620(zero) # 26c <reset_vec-0xfd94>
   10120:	27002e03          	lw	t3,624(zero) # 270 <reset_vec-0xfd90>
   10124:	27402e83          	lw	t4,628(zero) # 274 <reset_vec-0xfd8c>
   10128:	27802f03          	lw	t5,632(zero) # 278 <reset_vec-0xfd88>
   1012c:	27c02f83          	lw	t6,636(zero) # 27c <reset_vec-0xfd84>
   10130:	0400000b          	0x400000b
   10134:	00000013          	nop
   10138:	00000013          	nop
   1013c:	00000013          	nop
   10140:	00000013          	nop
   10144:	00000013          	nop
   10148:	00000013          	nop
   1014c:	00000013          	nop
   10150:	00000013          	nop
   10154:	00000013          	nop
   10158:	00000013          	nop
   1015c:	00000013          	nop
   10160:	00000013          	nop
   10164:	00000013          	nop
   10168:	00000013          	nop
   1016c:	00000013          	nop
   10170:	00000013          	nop
   10174:	00000013          	nop
   10178:	00000013          	nop
   1017c:	00000013          	nop
   10180:	00000013          	nop
   10184:	00000013          	nop
   10188:	00000013          	nop
   1018c:	00000013          	nop
   10190:	00000013          	nop
   10194:	00000013          	nop
   10198:	00000013          	nop
   1019c:	00000013          	nop
   101a0:	00000013          	nop
   101a4:	00000013          	nop
   101a8:	00000013          	nop
   101ac:	00000013          	nop
   101b0:	00000013          	nop
   101b4:	00000013          	nop
   101b8:	00000013          	nop
   101bc:	00000013          	nop
   101c0:	00000013          	nop
   101c4:	00000013          	nop
   101c8:	00000013          	nop
   101cc:	00000013          	nop
   101d0:	00000013          	nop
   101d4:	00000013          	nop
   101d8:	00000013          	nop
   101dc:	00000013          	nop
   101e0:	00000013          	nop
   101e4:	00000013          	nop
   101e8:	00000013          	nop
   101ec:	00000013          	nop
   101f0:	00000013          	nop
   101f4:	00000013          	nop
   101f8:	00000013          	nop
   101fc:	00000013          	nop

00010200 <irq_regs>:
	...

00010480 <irq_stack>:
   10480:	00000093          	li	ra,0
   10484:	00000113          	li	sp,0
   10488:	00000193          	li	gp,0
   1048c:	00000213          	li	tp,0
   10490:	00000293          	li	t0,0
   10494:	00000313          	li	t1,0
   10498:	00000393          	li	t2,0
   1049c:	00000413          	li	s0,0
   104a0:	00000493          	li	s1,0
   104a4:	00000513          	li	a0,0
   104a8:	00000593          	li	a1,0
   104ac:	00000613          	li	a2,0
   104b0:	00000693          	li	a3,0
   104b4:	00000713          	li	a4,0
   104b8:	00000793          	li	a5,0
   104bc:	00000813          	li	a6,0
   104c0:	00000893          	li	a7,0
   104c4:	00000913          	li	s2,0
   104c8:	00000993          	li	s3,0
   104cc:	00000a13          	li	s4,0
   104d0:	00000a93          	li	s5,0
   104d4:	00000b13          	li	s6,0
   104d8:	00000b93          	li	s7,0
   104dc:	00000c13          	li	s8,0
   104e0:	00000c93          	li	s9,0
   104e4:	00000d13          	li	s10,0
   104e8:	00000d93          	li	s11,0
   104ec:	00000e13          	li	t3,0
   104f0:	00000e93          	li	t4,0
   104f4:	00000f13          	li	t5,0
   104f8:	00000f93          	li	t6,0

000104fc <add_ret>:
   104fc:	00020137          	lui	sp,0x20
   10500:	deadc1b7          	lui	gp,0xdeadc
   10504:	eef18193          	addi	gp,gp,-273 # deadbeef <timer_irq_count.0+0xdeacaf9b>
   10508:	00018213          	mv	tp,gp
   1050c:	10000537          	lui	a0,0x10000
   10510:	04400593          	li	a1,68
   10514:	04f00613          	li	a2,79
   10518:	04e00693          	li	a3,78
   1051c:	04500713          	li	a4,69
   10520:	00a00793          	li	a5,10
   10524:	00b52023          	sw	a1,0(a0) # 10000000 <timer_irq_count.0+0xffef0ac>
   10528:	00c52023          	sw	a2,0(a0)
   1052c:	00d52023          	sw	a3,0(a0)
   10530:	00e52023          	sw	a4,0(a0)
   10534:	00f52023          	sw	a5,0(a0)
   10538:	20000537          	lui	a0,0x20000
   1053c:	075bd5b7          	lui	a1,0x75bd
   10540:	d1558593          	addi	a1,a1,-747 # 75bcd15 <timer_irq_count.0+0x75abdc1>
   10544:	00b52023          	sw	a1,0(a0) # 20000000 <timer_irq_count.0+0x1ffef0ac>
   10548:	00100073          	ebreak

0001054c <hard_mul>:
   1054c:	02b50533          	mul	a0,a0,a1
   10550:	00008067          	ret

00010554 <hard_mulh>:
   10554:	02b51533          	mulh	a0,a0,a1
   10558:	00008067          	ret

0001055c <hard_mulhsu>:
   1055c:	02b52533          	mulhsu	a0,a0,a1
   10560:	00008067          	ret

00010564 <hard_mulhu>:
   10564:	02b53533          	mulhu	a0,a0,a1
   10568:	00008067          	ret

0001056c <hard_div>:
   1056c:	02b54533          	div	a0,a0,a1
   10570:	00008067          	ret

00010574 <hard_divu>:
   10574:	02b55533          	divu	a0,a0,a1
   10578:	00008067          	ret

0001057c <hard_rem>:
   1057c:	02b56533          	rem	a0,a0,a1
   10580:	00008067          	ret

00010584 <hard_remu>:
   10584:	02b57533          	remu	a0,a0,a1
   10588:	00008067          	ret
	...

000106c8 <irq>:
   106c8:	fc010113          	addi	sp,sp,-64 # 1ffc0 <timer_irq_count.0+0xf06c>
   106cc:	02112e23          	sw	ra,60(sp)
   106d0:	02812c23          	sw	s0,56(sp)
   106d4:	04010413          	addi	s0,sp,64
   106d8:	fca42623          	sw	a0,-52(s0)
   106dc:	fcb42423          	sw	a1,-56(s0)
   106e0:	fc842783          	lw	a5,-56(s0)
   106e4:	0067f793          	andi	a5,a5,6
   106e8:	10078463          	beqz	a5,107f0 <irq+0x128>
   106ec:	fcc42783          	lw	a5,-52(s0)
   106f0:	0007a783          	lw	a5,0(a5)
   106f4:	0017f793          	andi	a5,a5,1
   106f8:	00078a63          	beqz	a5,1070c <irq+0x44>
   106fc:	fcc42783          	lw	a5,-52(s0)
   10700:	0007a783          	lw	a5,0(a5)
   10704:	ffd78793          	addi	a5,a5,-3
   10708:	0100006f          	j	10718 <irq+0x50>
   1070c:	fcc42783          	lw	a5,-52(s0)
   10710:	0007a783          	lw	a5,0(a5)
   10714:	ffc78793          	addi	a5,a5,-4
   10718:	fcf42e23          	sw	a5,-36(s0)
   1071c:	fdc42783          	lw	a5,-36(s0)
   10720:	0007d783          	lhu	a5,0(a5)
   10724:	fef42623          	sw	a5,-20(s0)
   10728:	fec42783          	lw	a5,-20(s0)
   1072c:	0037f713          	andi	a4,a5,3
   10730:	00300793          	li	a5,3
   10734:	02f71263          	bne	a4,a5,10758 <irq+0x90>
   10738:	fdc42783          	lw	a5,-36(s0)
   1073c:	00278793          	addi	a5,a5,2
   10740:	0007d783          	lhu	a5,0(a5)
   10744:	01079793          	slli	a5,a5,0x10
   10748:	00078713          	mv	a4,a5
   1074c:	fec42783          	lw	a5,-20(s0)
   10750:	00e7e7b3          	or	a5,a5,a4
   10754:	fef42623          	sw	a5,-20(s0)
   10758:	fec42783          	lw	a5,-20(s0)
   1075c:	0037f793          	andi	a5,a5,3
   10760:	ffd78793          	addi	a5,a5,-3
   10764:	00f037b3          	snez	a5,a5
   10768:	0ff7f713          	zext.b	a4,a5
   1076c:	fcc42783          	lw	a5,-52(s0)
   10770:	0007a783          	lw	a5,0(a5)
   10774:	0017f793          	andi	a5,a5,1
   10778:	0ff7f793          	zext.b	a5,a5
   1077c:	00f747b3          	xor	a5,a4,a5
   10780:	0ff7f793          	zext.b	a5,a5
   10784:	06078663          	beqz	a5,107f0 <irq+0x128>
   10788:	000117b7          	lui	a5,0x11
   1078c:	dcc78513          	addi	a0,a5,-564 # 10dcc <print_hex+0x78>
   10790:	4d4000ef          	jal	ra,10c64 <print_str>
   10794:	fcc42783          	lw	a5,-52(s0)
   10798:	0007a783          	lw	a5,0(a5)
   1079c:	00800593          	li	a1,8
   107a0:	00078513          	mv	a0,a5
   107a4:	5b0000ef          	jal	ra,10d54 <print_hex>
   107a8:	000117b7          	lui	a5,0x11
   107ac:	e0878513          	addi	a0,a5,-504 # 10e08 <print_hex+0xb4>
   107b0:	4b4000ef          	jal	ra,10c64 <print_str>
   107b4:	fec42783          	lw	a5,-20(s0)
   107b8:	0037f713          	andi	a4,a5,3
   107bc:	00300793          	li	a5,3
   107c0:	00f71a63          	bne	a4,a5,107d4 <irq+0x10c>
   107c4:	00800593          	li	a1,8
   107c8:	fec42503          	lw	a0,-20(s0)
   107cc:	588000ef          	jal	ra,10d54 <print_hex>
   107d0:	0100006f          	j	107e0 <irq+0x118>
   107d4:	00400593          	li	a1,4
   107d8:	fec42503          	lw	a0,-20(s0)
   107dc:	578000ef          	jal	ra,10d54 <print_hex>
   107e0:	000117b7          	lui	a5,0x11
   107e4:	e1478513          	addi	a0,a5,-492 # 10e14 <print_hex+0xc0>
   107e8:	47c000ef          	jal	ra,10c64 <print_str>
   107ec:	00100073          	ebreak
   107f0:	fc842783          	lw	a5,-56(s0)
   107f4:	0107f793          	andi	a5,a5,16
   107f8:	00078c63          	beqz	a5,10810 <irq+0x148>
   107fc:	000117b7          	lui	a5,0x11
   10800:	f4c7a783          	lw	a5,-180(a5) # 10f4c <ext_irq_4_count.2>
   10804:	00178713          	addi	a4,a5,1
   10808:	000117b7          	lui	a5,0x11
   1080c:	f4e7a623          	sw	a4,-180(a5) # 10f4c <ext_irq_4_count.2>
   10810:	fc842783          	lw	a5,-56(s0)
   10814:	0207f793          	andi	a5,a5,32
   10818:	00078c63          	beqz	a5,10830 <irq+0x168>
   1081c:	000117b7          	lui	a5,0x11
   10820:	f507a783          	lw	a5,-176(a5) # 10f50 <ext_irq_5_count.1>
   10824:	00178713          	addi	a4,a5,1
   10828:	000117b7          	lui	a5,0x11
   1082c:	f4e7a823          	sw	a4,-176(a5) # 10f50 <ext_irq_5_count.1>
   10830:	fc842783          	lw	a5,-56(s0)
   10834:	0017f793          	andi	a5,a5,1
   10838:	00078c63          	beqz	a5,10850 <irq+0x188>
   1083c:	000117b7          	lui	a5,0x11
   10840:	f547a783          	lw	a5,-172(a5) # 10f54 <timer_irq_count.0>
   10844:	00178713          	addi	a4,a5,1
   10848:	000117b7          	lui	a5,0x11
   1084c:	f4e7aa23          	sw	a4,-172(a5) # 10f54 <timer_irq_count.0>
   10850:	fc842783          	lw	a5,-56(s0)
   10854:	0067f793          	andi	a5,a5,6
   10858:	3c078263          	beqz	a5,10c1c <irq+0x554>
   1085c:	fcc42783          	lw	a5,-52(s0)
   10860:	0007a783          	lw	a5,0(a5)
   10864:	0017f793          	andi	a5,a5,1
   10868:	00078a63          	beqz	a5,1087c <irq+0x1b4>
   1086c:	fcc42783          	lw	a5,-52(s0)
   10870:	0007a783          	lw	a5,0(a5)
   10874:	ffd78793          	addi	a5,a5,-3
   10878:	0100006f          	j	10888 <irq+0x1c0>
   1087c:	fcc42783          	lw	a5,-52(s0)
   10880:	0007a783          	lw	a5,0(a5)
   10884:	ffc78793          	addi	a5,a5,-4
   10888:	fcf42c23          	sw	a5,-40(s0)
   1088c:	fd842783          	lw	a5,-40(s0)
   10890:	0007d783          	lhu	a5,0(a5)
   10894:	fef42423          	sw	a5,-24(s0)
   10898:	fe842783          	lw	a5,-24(s0)
   1089c:	0037f713          	andi	a4,a5,3
   108a0:	00300793          	li	a5,3
   108a4:	02f71263          	bne	a4,a5,108c8 <irq+0x200>
   108a8:	fd842783          	lw	a5,-40(s0)
   108ac:	00278793          	addi	a5,a5,2
   108b0:	0007d783          	lhu	a5,0(a5)
   108b4:	01079793          	slli	a5,a5,0x10
   108b8:	00078713          	mv	a4,a5
   108bc:	fe842783          	lw	a5,-24(s0)
   108c0:	00e7e7b3          	or	a5,a5,a4
   108c4:	fef42423          	sw	a5,-24(s0)
   108c8:	000117b7          	lui	a5,0x11
   108cc:	e1478513          	addi	a0,a5,-492 # 10e14 <print_hex+0xc0>
   108d0:	394000ef          	jal	ra,10c64 <print_str>
   108d4:	000117b7          	lui	a5,0x11
   108d8:	e1878513          	addi	a0,a5,-488 # 10e18 <print_hex+0xc4>
   108dc:	388000ef          	jal	ra,10c64 <print_str>
   108e0:	fc842783          	lw	a5,-56(s0)
   108e4:	0027f793          	andi	a5,a5,2
   108e8:	0a078263          	beqz	a5,1098c <irq+0x2c4>
   108ec:	fe842703          	lw	a4,-24(s0)
   108f0:	001007b7          	lui	a5,0x100
   108f4:	07378793          	addi	a5,a5,115 # 100073 <timer_irq_count.0+0xef11f>
   108f8:	00f70a63          	beq	a4,a5,1090c <irq+0x244>
   108fc:	fe842703          	lw	a4,-24(s0)
   10900:	000097b7          	lui	a5,0x9
   10904:	00278793          	addi	a5,a5,2 # 9002 <reset_vec-0x6ffe>
   10908:	02f71663          	bne	a4,a5,10934 <irq+0x26c>
   1090c:	000117b7          	lui	a5,0x11
   10910:	e5878513          	addi	a0,a5,-424 # 10e58 <print_hex+0x104>
   10914:	350000ef          	jal	ra,10c64 <print_str>
   10918:	00800593          	li	a1,8
   1091c:	fd842503          	lw	a0,-40(s0)
   10920:	434000ef          	jal	ra,10d54 <print_hex>
   10924:	000117b7          	lui	a5,0x11
   10928:	e1478513          	addi	a0,a5,-492 # 10e14 <print_hex+0xc0>
   1092c:	338000ef          	jal	ra,10c64 <print_str>
   10930:	05c0006f          	j	1098c <irq+0x2c4>
   10934:	000117b7          	lui	a5,0x11
   10938:	e7478513          	addi	a0,a5,-396 # 10e74 <print_hex+0x120>
   1093c:	328000ef          	jal	ra,10c64 <print_str>
   10940:	00800593          	li	a1,8
   10944:	fd842503          	lw	a0,-40(s0)
   10948:	40c000ef          	jal	ra,10d54 <print_hex>
   1094c:	000117b7          	lui	a5,0x11
   10950:	e9078513          	addi	a0,a5,-368 # 10e90 <print_hex+0x13c>
   10954:	310000ef          	jal	ra,10c64 <print_str>
   10958:	fe842783          	lw	a5,-24(s0)
   1095c:	0037f713          	andi	a4,a5,3
   10960:	00300793          	li	a5,3
   10964:	00f71663          	bne	a4,a5,10970 <irq+0x2a8>
   10968:	00800793          	li	a5,8
   1096c:	0080006f          	j	10974 <irq+0x2ac>
   10970:	00400793          	li	a5,4
   10974:	00078593          	mv	a1,a5
   10978:	fe842503          	lw	a0,-24(s0)
   1097c:	3d8000ef          	jal	ra,10d54 <print_hex>
   10980:	000117b7          	lui	a5,0x11
   10984:	e1478513          	addi	a0,a5,-492 # 10e14 <print_hex+0xc0>
   10988:	2dc000ef          	jal	ra,10c64 <print_str>
   1098c:	fc842783          	lw	a5,-56(s0)
   10990:	0047f793          	andi	a5,a5,4
   10994:	04078e63          	beqz	a5,109f0 <irq+0x328>
   10998:	000117b7          	lui	a5,0x11
   1099c:	e9878513          	addi	a0,a5,-360 # 10e98 <print_hex+0x144>
   109a0:	2c4000ef          	jal	ra,10c64 <print_str>
   109a4:	00800593          	li	a1,8
   109a8:	fd842503          	lw	a0,-40(s0)
   109ac:	3a8000ef          	jal	ra,10d54 <print_hex>
   109b0:	000117b7          	lui	a5,0x11
   109b4:	e9078513          	addi	a0,a5,-368 # 10e90 <print_hex+0x13c>
   109b8:	2ac000ef          	jal	ra,10c64 <print_str>
   109bc:	fe842783          	lw	a5,-24(s0)
   109c0:	0037f713          	andi	a4,a5,3
   109c4:	00300793          	li	a5,3
   109c8:	00f71663          	bne	a4,a5,109d4 <irq+0x30c>
   109cc:	00800793          	li	a5,8
   109d0:	0080006f          	j	109d8 <irq+0x310>
   109d4:	00400793          	li	a5,4
   109d8:	00078593          	mv	a1,a5
   109dc:	fe842503          	lw	a0,-24(s0)
   109e0:	374000ef          	jal	ra,10d54 <print_hex>
   109e4:	000117b7          	lui	a5,0x11
   109e8:	e1478513          	addi	a0,a5,-492 # 10e14 <print_hex+0xc0>
   109ec:	278000ef          	jal	ra,10c64 <print_str>
   109f0:	fe042223          	sw	zero,-28(s0)
   109f4:	1940006f          	j	10b88 <irq+0x4c0>
   109f8:	fe042023          	sw	zero,-32(s0)
   109fc:	1740006f          	j	10b70 <irq+0x4a8>
   10a00:	fe042783          	lw	a5,-32(s0)
   10a04:	00379793          	slli	a5,a5,0x3
   10a08:	fe442703          	lw	a4,-28(s0)
   10a0c:	00f707b3          	add	a5,a4,a5
   10a10:	fcf42a23          	sw	a5,-44(s0)
   10a14:	fd442783          	lw	a5,-44(s0)
   10a18:	00079a63          	bnez	a5,10a2c <irq+0x364>
   10a1c:	000117b7          	lui	a5,0x11
   10a20:	eb878513          	addi	a0,a5,-328 # 10eb8 <print_hex+0x164>
   10a24:	240000ef          	jal	ra,10c64 <print_str>
   10a28:	0f40006f          	j	10b1c <irq+0x454>
   10a2c:	fd442703          	lw	a4,-44(s0)
   10a30:	00900793          	li	a5,9
   10a34:	02e7cc63          	blt	a5,a4,10a6c <irq+0x3a4>
   10a38:	07800513          	li	a0,120
   10a3c:	1f8000ef          	jal	ra,10c34 <print_chr>
   10a40:	fd442783          	lw	a5,-44(s0)
   10a44:	0ff7f793          	zext.b	a5,a5
   10a48:	03078793          	addi	a5,a5,48
   10a4c:	0ff7f793          	zext.b	a5,a5
   10a50:	00078513          	mv	a0,a5
   10a54:	1e0000ef          	jal	ra,10c34 <print_chr>
   10a58:	02000513          	li	a0,32
   10a5c:	1d8000ef          	jal	ra,10c34 <print_chr>
   10a60:	02000513          	li	a0,32
   10a64:	1d0000ef          	jal	ra,10c34 <print_chr>
   10a68:	0b40006f          	j	10b1c <irq+0x454>
   10a6c:	fd442703          	lw	a4,-44(s0)
   10a70:	01300793          	li	a5,19
   10a74:	02e7cc63          	blt	a5,a4,10aac <irq+0x3e4>
   10a78:	07800513          	li	a0,120
   10a7c:	1b8000ef          	jal	ra,10c34 <print_chr>
   10a80:	03100513          	li	a0,49
   10a84:	1b0000ef          	jal	ra,10c34 <print_chr>
   10a88:	fd442783          	lw	a5,-44(s0)
   10a8c:	0ff7f793          	zext.b	a5,a5
   10a90:	02678793          	addi	a5,a5,38
   10a94:	0ff7f793          	zext.b	a5,a5
   10a98:	00078513          	mv	a0,a5
   10a9c:	198000ef          	jal	ra,10c34 <print_chr>
   10aa0:	02000513          	li	a0,32
   10aa4:	190000ef          	jal	ra,10c34 <print_chr>
   10aa8:	0740006f          	j	10b1c <irq+0x454>
   10aac:	fd442703          	lw	a4,-44(s0)
   10ab0:	01d00793          	li	a5,29
   10ab4:	02e7cc63          	blt	a5,a4,10aec <irq+0x424>
   10ab8:	07800513          	li	a0,120
   10abc:	178000ef          	jal	ra,10c34 <print_chr>
   10ac0:	03200513          	li	a0,50
   10ac4:	170000ef          	jal	ra,10c34 <print_chr>
   10ac8:	fd442783          	lw	a5,-44(s0)
   10acc:	0ff7f793          	zext.b	a5,a5
   10ad0:	01c78793          	addi	a5,a5,28
   10ad4:	0ff7f793          	zext.b	a5,a5
   10ad8:	00078513          	mv	a0,a5
   10adc:	158000ef          	jal	ra,10c34 <print_chr>
   10ae0:	02000513          	li	a0,32
   10ae4:	150000ef          	jal	ra,10c34 <print_chr>
   10ae8:	0340006f          	j	10b1c <irq+0x454>
   10aec:	07800513          	li	a0,120
   10af0:	144000ef          	jal	ra,10c34 <print_chr>
   10af4:	03300513          	li	a0,51
   10af8:	13c000ef          	jal	ra,10c34 <print_chr>
   10afc:	fd442783          	lw	a5,-44(s0)
   10b00:	0ff7f793          	zext.b	a5,a5
   10b04:	01278793          	addi	a5,a5,18
   10b08:	0ff7f793          	zext.b	a5,a5
   10b0c:	00078513          	mv	a0,a5
   10b10:	124000ef          	jal	ra,10c34 <print_chr>
   10b14:	02000513          	li	a0,32
   10b18:	11c000ef          	jal	ra,10c34 <print_chr>
   10b1c:	fd442783          	lw	a5,-44(s0)
   10b20:	00279793          	slli	a5,a5,0x2
   10b24:	fcc42703          	lw	a4,-52(s0)
   10b28:	00f707b3          	add	a5,a4,a5
   10b2c:	0007a783          	lw	a5,0(a5)
   10b30:	00800593          	li	a1,8
   10b34:	00078513          	mv	a0,a5
   10b38:	21c000ef          	jal	ra,10d54 <print_hex>
   10b3c:	fe042703          	lw	a4,-32(s0)
   10b40:	00300793          	li	a5,3
   10b44:	00f71863          	bne	a4,a5,10b54 <irq+0x48c>
   10b48:	000117b7          	lui	a5,0x11
   10b4c:	e1478793          	addi	a5,a5,-492 # 10e14 <print_hex+0xc0>
   10b50:	00c0006f          	j	10b5c <irq+0x494>
   10b54:	000117b7          	lui	a5,0x11
   10b58:	ec078793          	addi	a5,a5,-320 # 10ec0 <print_hex+0x16c>
   10b5c:	00078513          	mv	a0,a5
   10b60:	104000ef          	jal	ra,10c64 <print_str>
   10b64:	fe042783          	lw	a5,-32(s0)
   10b68:	00178793          	addi	a5,a5,1
   10b6c:	fef42023          	sw	a5,-32(s0)
   10b70:	fe042703          	lw	a4,-32(s0)
   10b74:	00300793          	li	a5,3
   10b78:	e8e7d4e3          	bge	a5,a4,10a00 <irq+0x338>
   10b7c:	fe442783          	lw	a5,-28(s0)
   10b80:	00178793          	addi	a5,a5,1
   10b84:	fef42223          	sw	a5,-28(s0)
   10b88:	fe442703          	lw	a4,-28(s0)
   10b8c:	00700793          	li	a5,7
   10b90:	e6e7d4e3          	bge	a5,a4,109f8 <irq+0x330>
   10b94:	000117b7          	lui	a5,0x11
   10b98:	e1878513          	addi	a0,a5,-488 # 10e18 <print_hex+0xc4>
   10b9c:	0c8000ef          	jal	ra,10c64 <print_str>
   10ba0:	000117b7          	lui	a5,0x11
   10ba4:	ec878513          	addi	a0,a5,-312 # 10ec8 <print_hex+0x174>
   10ba8:	0bc000ef          	jal	ra,10c64 <print_str>
   10bac:	000117b7          	lui	a5,0x11
   10bb0:	f4c7a783          	lw	a5,-180(a5) # 10f4c <ext_irq_4_count.2>
   10bb4:	00078513          	mv	a0,a5
   10bb8:	0f8000ef          	jal	ra,10cb0 <print_dec>
   10bbc:	000117b7          	lui	a5,0x11
   10bc0:	e1478513          	addi	a0,a5,-492 # 10e14 <print_hex+0xc0>
   10bc4:	0a0000ef          	jal	ra,10c64 <print_str>
   10bc8:	000117b7          	lui	a5,0x11
   10bcc:	ef078513          	addi	a0,a5,-272 # 10ef0 <print_hex+0x19c>
   10bd0:	094000ef          	jal	ra,10c64 <print_str>
   10bd4:	000117b7          	lui	a5,0x11
   10bd8:	f507a783          	lw	a5,-176(a5) # 10f50 <ext_irq_5_count.1>
   10bdc:	00078513          	mv	a0,a5
   10be0:	0d0000ef          	jal	ra,10cb0 <print_dec>
   10be4:	000117b7          	lui	a5,0x11
   10be8:	e1478513          	addi	a0,a5,-492 # 10e14 <print_hex+0xc0>
   10bec:	078000ef          	jal	ra,10c64 <print_str>
   10bf0:	000117b7          	lui	a5,0x11
   10bf4:	f1878513          	addi	a0,a5,-232 # 10f18 <print_hex+0x1c4>
   10bf8:	06c000ef          	jal	ra,10c64 <print_str>
   10bfc:	000117b7          	lui	a5,0x11
   10c00:	f547a783          	lw	a5,-172(a5) # 10f54 <timer_irq_count.0>
   10c04:	00078513          	mv	a0,a5
   10c08:	0a8000ef          	jal	ra,10cb0 <print_dec>
   10c0c:	000117b7          	lui	a5,0x11
   10c10:	e1478513          	addi	a0,a5,-492 # 10e14 <print_hex+0xc0>
   10c14:	050000ef          	jal	ra,10c64 <print_str>
   10c18:	00100073          	ebreak
   10c1c:	fcc42783          	lw	a5,-52(s0)
   10c20:	00078513          	mv	a0,a5
   10c24:	03c12083          	lw	ra,60(sp)
   10c28:	03812403          	lw	s0,56(sp)
   10c2c:	04010113          	addi	sp,sp,64
   10c30:	00008067          	ret

00010c34 <print_chr>:
   10c34:	fe010113          	addi	sp,sp,-32
   10c38:	00812e23          	sw	s0,28(sp)
   10c3c:	02010413          	addi	s0,sp,32
   10c40:	00050793          	mv	a5,a0
   10c44:	fef407a3          	sb	a5,-17(s0)
   10c48:	100007b7          	lui	a5,0x10000
   10c4c:	fef44703          	lbu	a4,-17(s0)
   10c50:	00e7a023          	sw	a4,0(a5) # 10000000 <timer_irq_count.0+0xffef0ac>
   10c54:	00000013          	nop
   10c58:	01c12403          	lw	s0,28(sp)
   10c5c:	02010113          	addi	sp,sp,32
   10c60:	00008067          	ret

00010c64 <print_str>:
   10c64:	fe010113          	addi	sp,sp,-32
   10c68:	00812e23          	sw	s0,28(sp)
   10c6c:	02010413          	addi	s0,sp,32
   10c70:	fea42623          	sw	a0,-20(s0)
   10c74:	01c0006f          	j	10c90 <print_str+0x2c>
   10c78:	fec42783          	lw	a5,-20(s0)
   10c7c:	00178713          	addi	a4,a5,1
   10c80:	fee42623          	sw	a4,-20(s0)
   10c84:	0007c703          	lbu	a4,0(a5)
   10c88:	100007b7          	lui	a5,0x10000
   10c8c:	00e7a023          	sw	a4,0(a5) # 10000000 <timer_irq_count.0+0xffef0ac>
   10c90:	fec42783          	lw	a5,-20(s0)
   10c94:	0007c783          	lbu	a5,0(a5)
   10c98:	fe0790e3          	bnez	a5,10c78 <print_str+0x14>
   10c9c:	00000013          	nop
   10ca0:	00000013          	nop
   10ca4:	01c12403          	lw	s0,28(sp)
   10ca8:	02010113          	addi	sp,sp,32
   10cac:	00008067          	ret

00010cb0 <print_dec>:
   10cb0:	fd010113          	addi	sp,sp,-48
   10cb4:	02812623          	sw	s0,44(sp)
   10cb8:	03010413          	addi	s0,sp,48
   10cbc:	fca42e23          	sw	a0,-36(s0)
   10cc0:	fe040793          	addi	a5,s0,-32
   10cc4:	fef42623          	sw	a5,-20(s0)
   10cc8:	0340006f          	j	10cfc <print_dec+0x4c>
   10ccc:	fdc42703          	lw	a4,-36(s0)
   10cd0:	00a00793          	li	a5,10
   10cd4:	02f776b3          	remu	a3,a4,a5
   10cd8:	fec42783          	lw	a5,-20(s0)
   10cdc:	00178713          	addi	a4,a5,1
   10ce0:	fee42623          	sw	a4,-20(s0)
   10ce4:	0ff6f713          	zext.b	a4,a3
   10ce8:	00e78023          	sb	a4,0(a5)
   10cec:	fdc42703          	lw	a4,-36(s0)
   10cf0:	00a00793          	li	a5,10
   10cf4:	02f757b3          	divu	a5,a4,a5
   10cf8:	fcf42e23          	sw	a5,-36(s0)
   10cfc:	fdc42783          	lw	a5,-36(s0)
   10d00:	fc0796e3          	bnez	a5,10ccc <print_dec+0x1c>
   10d04:	fe040793          	addi	a5,s0,-32
   10d08:	fec42703          	lw	a4,-20(s0)
   10d0c:	fcf700e3          	beq	a4,a5,10ccc <print_dec+0x1c>
   10d10:	0240006f          	j	10d34 <print_dec+0x84>
   10d14:	fec42783          	lw	a5,-20(s0)
   10d18:	fff78793          	addi	a5,a5,-1
   10d1c:	fef42623          	sw	a5,-20(s0)
   10d20:	fec42783          	lw	a5,-20(s0)
   10d24:	0007c783          	lbu	a5,0(a5)
   10d28:	03078713          	addi	a4,a5,48
   10d2c:	100007b7          	lui	a5,0x10000
   10d30:	00e7a023          	sw	a4,0(a5) # 10000000 <timer_irq_count.0+0xffef0ac>
   10d34:	fe040793          	addi	a5,s0,-32
   10d38:	fec42703          	lw	a4,-20(s0)
   10d3c:	fcf71ce3          	bne	a4,a5,10d14 <print_dec+0x64>
   10d40:	00000013          	nop
   10d44:	00000013          	nop
   10d48:	02c12403          	lw	s0,44(sp)
   10d4c:	03010113          	addi	sp,sp,48
   10d50:	00008067          	ret

00010d54 <print_hex>:
   10d54:	fd010113          	addi	sp,sp,-48
   10d58:	02812623          	sw	s0,44(sp)
   10d5c:	03010413          	addi	s0,sp,48
   10d60:	fca42e23          	sw	a0,-36(s0)
   10d64:	fcb42c23          	sw	a1,-40(s0)
   10d68:	fd842783          	lw	a5,-40(s0)
   10d6c:	fff78793          	addi	a5,a5,-1
   10d70:	00279793          	slli	a5,a5,0x2
   10d74:	fef42623          	sw	a5,-20(s0)
   10d78:	0380006f          	j	10db0 <print_hex+0x5c>
   10d7c:	fec42783          	lw	a5,-20(s0)
   10d80:	fdc42703          	lw	a4,-36(s0)
   10d84:	00f757b3          	srl	a5,a4,a5
   10d88:	00f7f793          	andi	a5,a5,15
   10d8c:	00011737          	lui	a4,0x11
   10d90:	f3870713          	addi	a4,a4,-200 # 10f38 <print_hex+0x1e4>
   10d94:	00f707b3          	add	a5,a4,a5
   10d98:	0007c703          	lbu	a4,0(a5)
   10d9c:	100007b7          	lui	a5,0x10000
   10da0:	00e7a023          	sw	a4,0(a5) # 10000000 <timer_irq_count.0+0xffef0ac>
   10da4:	fec42783          	lw	a5,-20(s0)
   10da8:	ffc78793          	addi	a5,a5,-4
   10dac:	fef42623          	sw	a5,-20(s0)
   10db0:	fec42783          	lw	a5,-20(s0)
   10db4:	fc07d4e3          	bgez	a5,10d7c <print_hex+0x28>
   10db8:	00000013          	nop
   10dbc:	00000013          	nop
   10dc0:	02c12403          	lw	s0,44(sp)
   10dc4:	03010113          	addi	sp,sp,48
   10dc8:	00008067          	ret
